; Function Attrs: mustprogress uwtable
define i32 @udbg_enumByString(i32 noundef %type, ptr noundef nonnull align 8 dereferenceable(64) %string) local_unnamed_addr #1 {
entry:
  %or.cond = icmp ugt i32 %type, 5
  br i1 %or.cond, label %return, label %if.end

if.end:                                           ; preds = %entry
  %call = tail call noundef nonnull align 8 dereferenceable(64) ptr @_Z15udbg_enumString14UDebugEnumTypei(i32 noundef %type, i32 noundef 0)
  %call29 = tail call i32 @udbg_enumCount(i32 noundef %type)
  %cmp310 = icmp sgt i32 %call29, 0
  br i1 %cmp310, label %for.body.lr.ph, label %return

for.body.lr.ph:                                   ; preds = %if.end
  %idxprom = zext nneg i32 %type to i64
  %fUnion.i.i = getelementptr inbounds i8, ptr %string, i64 8
  %fLength.i.i = getelementptr inbounds i8, ptr %string, i64 12
  br label %for.body

for.body:                                         ; preds = %for.body.lr.ph, %for.inc
  %indvars.iv = phi i64 [ 0, %for.body.lr.ph ], [ %indvars.iv.next, %for.inc ]
  %0 = load ptr, ptr @_ZL4strs, align 8
  %arrayidx = getelementptr inbounds ptr, ptr %0, i64 %idxprom
  %1 = load ptr, ptr %arrayidx, align 8
  %arrayidx5 = getelementptr inbounds %"class.icu_75::UnicodeString", ptr %1, i64 %indvars.iv
  %2 = load i16, ptr %fUnion.i.i, align 8
  %conv2.i14.i = and i16 %2, 1
  %tobool.not.i = icmp eq i16 %conv2.i14.i, 0
  br i1 %tobool.not.i, label %if.else.i, label %if.then.i

if.then.i:                                        ; preds = %for.body
  %fUnion.i5.i = getelementptr inbounds i8, ptr %arrayidx5, i64 8
  %3 = load i16, ptr %fUnion.i5.i, align 8
  %conv2.i615.i = and i16 %3, 1
  %tobool3.i.not = icmp eq i16 %conv2.i615.i, 0
  br i1 %tobool3.i.not, label %for.inc, label %return.loopexit.split.loop.exit

if.else.i:                                        ; preds = %for.body
  %cmp.i.i.i = icmp slt i16 %2, 0
  %4 = ashr i16 %2, 5
  %shr.i.i.i = sext i16 %4 to i32
  %5 = load i32, ptr %fLength.i.i, align 4
  %cond.i.i = select i1 %cmp.i.i.i, i32 %5, i32 %shr.i.i.i
  %fUnion.i.i7.i = getelementptr inbounds i8, ptr %arrayidx5, i64 8
  %6 = load i16, ptr %fUnion.i.i7.i, align 8
  %cmp.i.i8.i = icmp slt i16 %6, 0
  %7 = ashr i16 %6, 5
  %shr.i.i9.i = sext i16 %7 to i32
  %fLength.i10.i = getelementptr inbounds i8, ptr %arrayidx5, i64 12
  %8 = load i32, ptr %fLength.i10.i, align 4
  %cond.i11.i = select i1 %cmp.i.i8.i, i32 %8, i32 %shr.i.i9.i
  %conv2.i1316.i = and i16 %6, 1
  %tobool7.not.i = icmp eq i16 %conv2.i1316.i, 0
  %cmp.i = icmp eq i32 %cond.i.i, %cond.i11.i
  %or.cond.i = and i1 %tobool7.not.i, %cmp.i
  br i1 %or.cond.i, label %_ZNK6icu_7513UnicodeStringeqERKS0_.exit, label %for.inc

_ZNK6icu_7513UnicodeStringeqERKS0_.exit:          ; preds = %if.else.i
  %call8.i = tail call noundef signext i8 @_ZNK6icu_7513UnicodeString8doEqualsERKS0_i(ptr noundef nonnull align 8 dereferenceable(64) %string, ptr noundef nonnull align 8 dereferenceable(64) %arrayidx5, i32 noundef %cond.i.i)
  %tobool9.i.not = icmp eq i8 %call8.i, 0
  br i1 %tobool9.i.not, label %for.inc, label %return.loopexit.split.loop.exit17

for.inc:                                          ; preds = %if.else.i, %if.then.i, %_ZNK6icu_7513UnicodeStringeqERKS0_.exit
  %indvars.iv.next = add nuw nsw i64 %indvars.iv, 1
  %call2 = tail call i32 @udbg_enumCount(i32 noundef %type)
  %9 = sext i32 %call2 to i64
  %cmp3 = icmp slt i64 %indvars.iv.next, %9
  br i1 %cmp3, label %for.body, label %return, !llvm.loop !7

return.loopexit.split.loop.exit:                  ; preds = %if.then.i
  %10 = trunc i64 %indvars.iv to i32
  br label %return

return.loopexit.split.loop.exit17:                ; preds = %_ZNK6icu_7513UnicodeStringeqERKS0_.exit
  %11 = trunc i64 %indvars.iv to i32
  br label %return

return:                                           ; preds = %for.inc, %return.loopexit.split.loop.exit, %return.loopexit.split.loop.exit17, %if.end, %entry
  %retval.0 = phi i32 [ -1, %entry ], [ -1, %if.end ], [ %10, %return.loopexit.split.loop.exit ], [ %11, %return.loopexit.split.loop.exit17 ], [ -1, %for.inc ]
  ret i32 %retval.0
}